target datalayout = "e-m:e-p270:32:32-p271:32:32-p272:64:64-i64:64-i128:128-f80:128-n8:16:32:64-S128"
target triple = "x86_64-pc-linux-gnu"

%struct.qlog_st = type { %struct.qlog_trace_info_st, ptr, [1 x i64], i32, ptr, ptr, ptr, %struct.OSSL_TIME, %struct.OSSL_TIME, %struct.ossl_json_enc_st, i32, i32 }
%struct.qlog_trace_info_st = type { %struct.quic_conn_id_st, ptr, ptr, ptr, i32, ptr, ptr, i64, ptr }
%struct.quic_conn_id_st = type { i8, [20 x i8] }
%struct.OSSL_TIME = type { i64 }
%struct.ossl_json_enc_st = type { i32, i8, i8, i8, ptr, i8, [16 x i8], %struct.json_write_buf, i64, i64 }
%struct.json_write_buf = type { ptr, ptr, i64, i64 }

@.str = private unnamed_addr constant [27 x i8] c"../openssl/ssl/quic/qlog.c\00", align 1
@.str.1 = private unnamed_addr constant [8 x i8] c"QLOGDIR\00", align 1
@.str.2 = private unnamed_addr constant [13 x i8] c"OSSL_QFILTER\00", align 1
@.str.3 = private unnamed_addr constant [5 x i8] c"%02x\00", align 1
@.str.4 = private unnamed_addr constant [10 x i8] c"_%s.sqlog\00", align 1
@.str.5 = private unnamed_addr constant [7 x i8] c"server\00", align 1
@.str.6 = private unnamed_addr constant [7 x i8] c"client\00", align 1
@.str.7 = private unnamed_addr constant [2 x i8] c"*\00", align 1
@.str.8 = private unnamed_addr constant [3 x i8] c"wb\00", align 1

; Function Attrs: nounwind uwtable
define i32 @ossl_qlog_flush(ptr noundef %0) #0 {
  %2 = alloca i32, align 4
  %3 = alloca ptr, align 8
  store ptr %0, ptr %3, align 8, !tbaa !8
  %4 = load ptr, ptr %3, align 8, !tbaa !8
  %5 = icmp eq ptr %4, null
  br i1 %5, label %6, label %7

6:                                                ; preds = %1
  store i32 1, ptr %2, align 4
  br label %11

7:                                                ; preds = %1
  %8 = load ptr, ptr %3, align 8, !tbaa !8
  %9 = getelementptr inbounds nuw %struct.qlog_st, ptr %8, i32 0, i32 9
  %10 = call i32 @ossl_json_flush(ptr noundef %9)
  store i32 %10, ptr %2, align 4
  br label %11

11:                                               ; preds = %7, %6
  %12 = load i32, ptr %2, align 4
  ret i32 %12
}

; Function Attrs: nounwind uwtable
define i32 @ossl_qlog_set_sink_bio(ptr noundef %0, ptr noundef %1) #0 {
  %3 = alloca i32, align 4
  %4 = alloca ptr, align 8
  %5 = alloca ptr, align 8
  store ptr %0, ptr %4, align 8, !tbaa !8
  store ptr %1, ptr %5, align 8, !tbaa !44
  %6 = load ptr, ptr %4, align 8, !tbaa !8
  %7 = icmp eq ptr %6, null
  br i1 %7, label %8, label %9

8:                                                ; preds = %2
  store i32 0, ptr %3, align 4
  br label %22

9:                                                ; preds = %2
  %10 = load ptr, ptr %4, align 8, !tbaa !8
  %11 = call i32 @ossl_qlog_flush(ptr noundef %10)
  %12 = load ptr, ptr %4, align 8, !tbaa !8
  %13 = getelementptr inbounds nuw %struct.qlog_st, ptr %12, i32 0, i32 1
  %14 = load ptr, ptr %13, align 8, !tbaa !47
  call void @BIO_free_all(ptr noundef %14)
  %15 = load ptr, ptr %5, align 8, !tbaa !44
  %16 = load ptr, ptr %4, align 8, !tbaa !8
  %17 = getelementptr inbounds nuw %struct.qlog_st, ptr %16, i32 0, i32 1
  store ptr %15, ptr %17, align 8, !tbaa !47
  %18 = load ptr, ptr %4, align 8, !tbaa !8
  %19 = getelementptr inbounds nuw %struct.qlog_st, ptr %18, i32 0, i32 9
  %20 = load ptr, ptr %5, align 8, !tbaa !44
  %21 = call i32 @ossl_json_set0_sink(ptr noundef %19, ptr noundef %20)
  store i32 1, ptr %3, align 4
  br label %22

22:                                               ; preds = %9, %8
  %23 = load i32, ptr %3, align 4
  ret i32 %23
}

; Function Attrs: inlinehint nounwind uwtable
define internal i32 @ossl_ends_with_dirsep(ptr noundef %0) #5 {
  %2 = alloca ptr, align 8
  store ptr %0, ptr %2, align 8, !tbaa !39
  %3 = load ptr, ptr %2, align 8, !tbaa !39
  %4 = load i8, ptr %3, align 1, !tbaa !11
  %5 = sext i8 %4 to i32
  %6 = icmp ne i32 %5, 0
  br i1 %6, label %7, label %13

7:                                                ; preds = %1
  %8 = load ptr, ptr %2, align 8, !tbaa !39
  %9 = call i64 @strlen(ptr noundef %8) #10
  %10 = sub i64 %9, 1
  %11 = load ptr, ptr %2, align 8, !tbaa !39
  %12 = getelementptr inbounds nuw i8, ptr %11, i64 %10
  store ptr %12, ptr %2, align 8, !tbaa !39
  br label %13

13:                                               ; preds = %7, %1
  %14 = load ptr, ptr %2, align 8, !tbaa !39
  %15 = load i8, ptr %14, align 1, !tbaa !11
  %16 = sext i8 %15 to i32
  %17 = icmp eq i32 %16, 47
  %18 = zext i1 %17 to i32
  ret i32 %18
}

; Function Attrs: nounwind uwtable
define i32 @ossl_qlog_set_sink_filename(ptr noundef %0, ptr noundef %1) #0 {
  %3 = alloca i32, align 4
  %4 = alloca ptr, align 8
  %5 = alloca ptr, align 8
  %6 = alloca ptr, align 8
  %7 = alloca i32, align 4
  store ptr %0, ptr %4, align 8, !tbaa !8
  store ptr %1, ptr %5, align 8, !tbaa !39
  call void @llvm.lifetime.start.p0(i64 8, ptr %6) #9
  %8 = load ptr, ptr %4, align 8, !tbaa !8
  %9 = icmp eq ptr %8, null
  br i1 %9, label %10, label %11

10:                                               ; preds = %2
  store i32 0, ptr %3, align 4
  store i32 1, ptr %7, align 4
  br label %25

11:                                               ; preds = %2
  %12 = load ptr, ptr %5, align 8, !tbaa !39
  %13 = call ptr @BIO_new_file(ptr noundef %12, ptr noundef @.str.8)
  store ptr %13, ptr %6, align 8, !tbaa !44
  %14 = load ptr, ptr %6, align 8, !tbaa !44
  %15 = icmp eq ptr %14, null
  br i1 %15, label %16, label %17

16:                                               ; preds = %11
  store i32 0, ptr %3, align 4
  store i32 1, ptr %7, align 4
  br label %25

17:                                               ; preds = %11
  %18 = load ptr, ptr %4, align 8, !tbaa !8
  %19 = load ptr, ptr %6, align 8, !tbaa !44
  %20 = call i32 @ossl_qlog_set_sink_bio(ptr noundef %18, ptr noundef %19)
  %21 = icmp ne i32 %20, 0
  br i1 %21, label %24, label %22

22:                                               ; preds = %17
  %23 = load ptr, ptr %6, align 8, !tbaa !44
  call void @BIO_free_all(ptr noundef %23)
  store i32 0, ptr %3, align 4
  store i32 1, ptr %7, align 4
  br label %25

24:                                               ; preds = %17
  store i32 1, ptr %3, align 4
  store i32 1, ptr %7, align 4
  br label %25

25:                                               ; preds = %24, %22, %16, %10
  call void @llvm.lifetime.end.p0(i64 8, ptr %6) #9
  %26 = load i32, ptr %3, align 4
  ret i32 %26
}

; Function Attrs: inlinehint nounwind uwtable
define internal signext i8 @ossl_determine_dirsep(ptr noundef %0) #5 {
  %2 = alloca i8, align 1
  %3 = alloca ptr, align 8
  store ptr %0, ptr %3, align 8, !tbaa !39
  %4 = load ptr, ptr %3, align 8, !tbaa !39
  %5 = call i32 @ossl_ends_with_dirsep(ptr noundef %4)
  %6 = icmp ne i32 %5, 0
  br i1 %6, label %7, label %8

7:                                                ; preds = %1
  store i8 0, ptr %2, align 1
  br label %9

8:                                                ; preds = %1
  store i8 47, ptr %2, align 1
  br label %9

9:                                                ; preds = %8, %7
  %10 = load i8, ptr %2, align 1
  ret i8 %10
}

; Function Attrs: nounwind uwtable
define ptr @ossl_qlog_new_from_env(ptr noundef %0) #0 {
  %2 = alloca ptr, align 8
  %3 = alloca ptr, align 8
  %4 = alloca ptr, align 8
  %5 = alloca ptr, align 8
  %6 = alloca ptr, align 8
  %7 = alloca i8, align 1
  %8 = alloca ptr, align 8
  %9 = alloca i64, align 8
  %10 = alloca i64, align 8
  %11 = alloca i64, align 8
  %12 = alloca i32, align 4
  store ptr %0, ptr %3, align 8, !tbaa !3
  call void @llvm.lifetime.start.p0(i64 8, ptr %4) #9
  store ptr null, ptr %4, align 8, !tbaa !8
  call void @llvm.lifetime.start.p0(i64 8, ptr %5) #9
  %13 = call ptr @ossl_safe_getenv(ptr noundef @.str.1)
  store ptr %13, ptr %5, align 8, !tbaa !39
  call void @llvm.lifetime.start.p0(i64 8, ptr %6) #9
  %14 = call ptr @ossl_safe_getenv(ptr noundef @.str.2)
  store ptr %14, ptr %6, align 8, !tbaa !39
  call void @llvm.lifetime.start.p0(i64 1, ptr %7) #9
  call void @llvm.lifetime.start.p0(i64 8, ptr %8) #9
  store ptr null, ptr %8, align 8, !tbaa !39
  call void @llvm.lifetime.start.p0(i64 8, ptr %9) #9
  call void @llvm.lifetime.start.p0(i64 8, ptr %10) #9
  call void @llvm.lifetime.start.p0(i64 8, ptr %11) #9
  %15 = load ptr, ptr %3, align 8, !tbaa !3
  %16 = icmp eq ptr %15, null
  br i1 %16, label %20, label %17

17:                                               ; preds = %1
  %18 = load ptr, ptr %5, align 8, !tbaa !39
  %19 = icmp eq ptr %18, null
  br i1 %19, label %20, label %21

20:                                               ; preds = %17, %1
  store ptr null, ptr %2, align 8
  store i32 1, ptr %12, align 4
  br label %141

21:                                               ; preds = %17
  %22 = load ptr, ptr %5, align 8, !tbaa !39
  %23 = call i64 @strlen(ptr noundef %22) #10
  store i64 %23, ptr %10, align 8, !tbaa !40
  %24 = load i64, ptr %10, align 8, !tbaa !40
  %25 = icmp eq i64 %24, 0
  br i1 %25, label %26, label %27

26:                                               ; preds = %21
  store ptr null, ptr %2, align 8
  store i32 1, ptr %12, align 4
  br label %141

27:                                               ; preds = %21
  %28 = load ptr, ptr %5, align 8, !tbaa !39
  %29 = call signext i8 @ossl_determine_dirsep(ptr noundef %28)
  store i8 %29, ptr %7, align 1, !tbaa !11
  %30 = load i64, ptr %10, align 8, !tbaa !40
  %31 = add i64 %30, 1
  %32 = load ptr, ptr %3, align 8, !tbaa !3
  %33 = getelementptr inbounds nuw %struct.qlog_trace_info_st, ptr %32, i32 0, i32 0
  %34 = getelementptr inbounds nuw %struct.quic_conn_id_st, ptr %33, i32 0, i32 0
  %35 = load i8, ptr %34, align 8, !tbaa !41
  %36 = zext i8 %35 to i32
  %37 = mul nsw i32 %36, 2
  %38 = sext i32 %37 to i64
  %39 = add i64 %31, %38
  %40 = add i64 %39, 1
  %41 = add i64 %40, 6
  %42 = add i64 %41, 6
  %43 = add i64 %42, 1
  store i64 %43, ptr %11, align 8, !tbaa !40
  %44 = load i64, ptr %11, align 8, !tbaa !40
  %45 = call noalias ptr @CRYPTO_malloc(i64 noundef %44, ptr noundef @.str, i32 noundef 124)
  store ptr %45, ptr %8, align 8, !tbaa !39
  %46 = load ptr, ptr %8, align 8, !tbaa !39
  %47 = icmp eq ptr %46, null
  br i1 %47, label %48, label %49

48:                                               ; preds = %27
  store ptr null, ptr %2, align 8
  store i32 1, ptr %12, align 4
  br label %141

49:                                               ; preds = %27
  %50 = load ptr, ptr %8, align 8, !tbaa !39
  %51 = load ptr, ptr %5, align 8, !tbaa !39
  %52 = load i64, ptr %10, align 8, !tbaa !40
  call void @llvm.memcpy.p0.p0.i64(ptr align 1 %50, ptr align 1 %51, i64 %52, i1 false)
  %53 = load i8, ptr %7, align 1, !tbaa !11
  %54 = sext i8 %53 to i32
  %55 = icmp ne i32 %54, 0
  br i1 %55, label %56, label %62

56:                                               ; preds = %49
  %57 = load i8, ptr %7, align 1, !tbaa !11
  %58 = load ptr, ptr %8, align 8, !tbaa !39
  %59 = load i64, ptr %10, align 8, !tbaa !40
  %60 = add i64 %59, 1
  store i64 %60, ptr %10, align 8, !tbaa !40
  %61 = getelementptr inbounds nuw i8, ptr %58, i64 %59
  store i8 %57, ptr %61, align 1, !tbaa !11
  br label %62

62:                                               ; preds = %56, %49
  store i64 0, ptr %9, align 8, !tbaa !40
  br label %63

63:                                               ; preds = %89, %62
  %64 = load i64, ptr %9, align 8, !tbaa !40
  %65 = load ptr, ptr %3, align 8, !tbaa !3
  %66 = getelementptr inbounds nuw %struct.qlog_trace_info_st, ptr %65, i32 0, i32 0
  %67 = getelementptr inbounds nuw %struct.quic_conn_id_st, ptr %66, i32 0, i32 0
  %68 = load i8, ptr %67, align 8, !tbaa !41
  %69 = zext i8 %68 to i64
  %70 = icmp ult i64 %64, %69
  br i1 %70, label %71, label %92

71:                                               ; preds = %63
  %72 = load ptr, ptr %8, align 8, !tbaa !39
  %73 = load i64, ptr %10, align 8, !tbaa !40
  %74 = getelementptr inbounds nuw i8, ptr %72, i64 %73
  %75 = load i64, ptr %11, align 8, !tbaa !40
  %76 = load i64, ptr %10, align 8, !tbaa !40
  %77 = sub i64 %75, %76
  %78 = load ptr, ptr %3, align 8, !tbaa !3
  %79 = getelementptr inbounds nuw %struct.qlog_trace_info_st, ptr %78, i32 0, i32 0
  %80 = getelementptr inbounds nuw %struct.quic_conn_id_st, ptr %79, i32 0, i32 1
  %81 = load i64, ptr %9, align 8, !tbaa !40
  %82 = getelementptr inbounds nuw [20 x i8], ptr %80, i64 0, i64 %81
  %83 = load i8, ptr %82, align 1, !tbaa !11
  %84 = zext i8 %83 to i32
  %85 = call i32 (ptr, i64, ptr, ...) @BIO_snprintf(ptr noundef %74, i64 noundef %77, ptr noundef @.str.3, i32 noundef %84)
  %86 = sext i32 %85 to i64
  %87 = load i64, ptr %10, align 8, !tbaa !40
  %88 = add i64 %87, %86
  store i64 %88, ptr %10, align 8, !tbaa !40
  br label %89

89:                                               ; preds = %71
  %90 = load i64, ptr %9, align 8, !tbaa !40
  %91 = add i64 %90, 1
  store i64 %91, ptr %9, align 8, !tbaa !40
  br label %63, !llvm.loop !42

92:                                               ; preds = %63
  %93 = load ptr, ptr %8, align 8, !tbaa !39
  %94 = load i64, ptr %10, align 8, !tbaa !40
  %95 = getelementptr inbounds nuw i8, ptr %93, i64 %94
  %96 = load i64, ptr %11, align 8, !tbaa !40
  %97 = load i64, ptr %10, align 8, !tbaa !40
  %98 = sub i64 %96, %97
  %99 = load ptr, ptr %3, align 8, !tbaa !3
  %100 = getelementptr inbounds nuw %struct.qlog_trace_info_st, ptr %99, i32 0, i32 4
  %101 = load i32, ptr %100, align 8, !tbaa !12
  %102 = icmp ne i32 %101, 0
  %103 = select i1 %102, ptr @.str.5, ptr @.str.6
  %104 = call i32 (ptr, i64, ptr, ...) @BIO_snprintf(ptr noundef %95, i64 noundef %98, ptr noundef @.str.4, ptr noundef %103)
  %105 = sext i32 %104 to i64
  %106 = load i64, ptr %10, align 8, !tbaa !40
  %107 = add i64 %106, %105
  store i64 %107, ptr %10, align 8, !tbaa !40
  %108 = load ptr, ptr %3, align 8, !tbaa !3
  %109 = call ptr @ossl_qlog_new(ptr noundef %108)
  store ptr %109, ptr %4, align 8, !tbaa !8
  %110 = load ptr, ptr %4, align 8, !tbaa !8
  %111 = icmp eq ptr %110, null
  br i1 %111, label %112, label %113

112:                                              ; preds = %92
  br label %138

113:                                              ; preds = %92
  %114 = load ptr, ptr %4, align 8, !tbaa !8
  %115 = load ptr, ptr %8, align 8, !tbaa !39
  %116 = call i32 @ossl_qlog_set_sink_filename(ptr noundef %114, ptr noundef %115)
  %117 = icmp ne i32 %116, 0
  br i1 %117, label %119, label %118

118:                                              ; preds = %113
  br label %138

119:                                              ; preds = %113
  %120 = load ptr, ptr %6, align 8, !tbaa !39
  %121 = icmp eq ptr %120, null
  br i1 %121, label %128, label %122

122:                                              ; preds = %119
  %123 = load ptr, ptr %6, align 8, !tbaa !39
  %124 = getelementptr inbounds i8, ptr %123, i64 0
  %125 = load i8, ptr %124, align 1, !tbaa !11
  %126 = sext i8 %125 to i32
  %127 = icmp eq i32 %126, 0
  br i1 %127, label %128, label %129

128:                                              ; preds = %122, %119
  store ptr @.str.7, ptr %6, align 8, !tbaa !39
  br label %129

129:                                              ; preds = %128, %122
  %130 = load ptr, ptr %4, align 8, !tbaa !8
  %131 = load ptr, ptr %6, align 8, !tbaa !39
  %132 = call i32 @ossl_qlog_set_filter(ptr noundef %130, ptr noundef %131)
  %133 = icmp ne i32 %132, 0
  br i1 %133, label %135, label %134

134:                                              ; preds = %129
  br label %138

135:                                              ; preds = %129
  %136 = load ptr, ptr %8, align 8, !tbaa !39
  call void @CRYPTO_free(ptr noundef %136, ptr noundef @.str, i32 noundef 151)
  %137 = load ptr, ptr %4, align 8, !tbaa !8
  store ptr %137, ptr %2, align 8
  store i32 1, ptr %12, align 4
  br label %141

138:                                              ; preds = %134, %118, %112
  %139 = load ptr, ptr %8, align 8, !tbaa !39
  call void @CRYPTO_free(ptr noundef %139, ptr noundef @.str, i32 noundef 155)
  %140 = load ptr, ptr %4, align 8, !tbaa !8
  call void @ossl_qlog_free(ptr noundef %140)
  store ptr null, ptr %2, align 8
  store i32 1, ptr %12, align 4
  br label %141

141:                                              ; preds = %138, %135, %48, %26, %20
  call void @llvm.lifetime.end.p0(i64 8, ptr %11) #9
  call void @llvm.lifetime.end.p0(i64 8, ptr %10) #9
  call void @llvm.lifetime.end.p0(i64 8, ptr %9) #9
  call void @llvm.lifetime.end.p0(i64 8, ptr %8) #9
  call void @llvm.lifetime.end.p0(i64 1, ptr %7) #9
  call void @llvm.lifetime.end.p0(i64 8, ptr %6) #9
  call void @llvm.lifetime.end.p0(i64 8, ptr %5) #9
  call void @llvm.lifetime.end.p0(i64 8, ptr %4) #9
  %142 = load ptr, ptr %2, align 8
  ret ptr %142
}