; Function Attrs: nounwind uwtable
define ptr @ossl_qlog_new_from_env(ptr noundef readonly captures(address_is_null) %0) local_unnamed_addr #0 {
  %2 = tail call ptr @ossl_safe_getenv(ptr noundef nonnull @.str.1) #11
  %3 = tail call ptr @ossl_safe_getenv(ptr noundef nonnull @.str.2) #11
  %4 = icmp eq ptr %0, null
  %5 = icmp eq ptr %2, null
  %or.cond = select i1 %4, i1 true, i1 %5
  br i1 %or.cond, label %66, label %6

6:                                                ; preds = %1
  %7 = tail call i64 @strlen(ptr noundef nonnull dereferenceable(1) %2) #12
  %8 = icmp eq i64 %7, 0
  br i1 %8, label %66, label %9

9:                                                ; preds = %6
  %10 = load i8, ptr %2, align 1, !tbaa !4
  %.not.i.i = icmp eq i8 %10, 0
  br i1 %.not.i.i, label %ossl_ends_with_dirsep.exit.thread.i, label %ossl_ends_with_dirsep.exit.i

ossl_ends_with_dirsep.exit.i:                     ; preds = %9
  %11 = getelementptr i8, ptr %2, i64 %7
  %12 = getelementptr i8, ptr %11, i64 -1
  %.pre.i.i = load i8, ptr %12, align 1, !tbaa !4
  %.pre.i.fr.i = freeze i8 %.pre.i.i
  %.not.i = icmp eq i8 %.pre.i.fr.i, 47
  br i1 %.not.i, label %ossl_determine_dirsep.exit, label %ossl_ends_with_dirsep.exit.thread.i

ossl_ends_with_dirsep.exit.thread.i:              ; preds = %ossl_ends_with_dirsep.exit.i, %9
  br label %ossl_determine_dirsep.exit

ossl_determine_dirsep.exit:                       ; preds = %ossl_ends_with_dirsep.exit.i, %ossl_ends_with_dirsep.exit.thread.i
  %.not = phi i1 [ false, %ossl_ends_with_dirsep.exit.thread.i ], [ true, %ossl_ends_with_dirsep.exit.i ]
  %13 = phi i8 [ 47, %ossl_ends_with_dirsep.exit.thread.i ], [ 0, %ossl_ends_with_dirsep.exit.i ]
  %14 = add i64 %7, 1
  %15 = load i8, ptr %0, align 8, !tbaa !34
  %16 = zext i8 %15 to i64
  %17 = shl nuw nsw i64 %16, 1
  %18 = add i64 %7, 15
  %19 = add i64 %18, %17
  %20 = tail call noalias ptr @CRYPTO_malloc(i64 noundef %19, ptr noundef nonnull @.str, i32 noundef 124) #11
  %21 = icmp eq ptr %20, null
  br i1 %21, label %66, label %22

22:                                               ; preds = %ossl_determine_dirsep.exit
  tail call void @llvm.memcpy.p0.p0.i64(ptr nonnull align 1 %20, ptr nonnull align 1 %2, i64 %7, i1 false)
  br i1 %.not, label %25, label %23

23:                                               ; preds = %22
  %24 = getelementptr inbounds nuw i8, ptr %20, i64 %7
  store i8 %13, ptr %24, align 1, !tbaa !4
  br label %25

25:                                               ; preds = %23, %22
  %.045 = phi i64 [ %14, %23 ], [ %7, %22 ]
  %26 = load i8, ptr %0, align 8, !tbaa !34
  %.not61 = icmp eq i8 %26, 0
  br i1 %.not61, label %._crit_edge, label %.lr.ph

.lr.ph:                                           ; preds = %25
  %27 = getelementptr inbounds nuw i8, ptr %0, i64 1
  br label %28

28:                                               ; preds = %.lr.ph, %28
  %.160 = phi i64 [ %.045, %.lr.ph ], [ %36, %28 ]
  %.04659 = phi i64 [ 0, %.lr.ph ], [ %37, %28 ]
  %29 = getelementptr inbounds nuw i8, ptr %20, i64 %.160
  %30 = sub i64 %19, %.160
  %31 = getelementptr inbounds nuw [20 x i8], ptr %27, i64 0, i64 %.04659
  %32 = load i8, ptr %31, align 1, !tbaa !4
  %33 = zext i8 %32 to i32
  %34 = tail call i32 (ptr, i64, ptr, ...) @BIO_snprintf(ptr noundef nonnull %29, i64 noundef %30, ptr noundef nonnull @.str.3, i32 noundef %33) #11
  %35 = sext i32 %34 to i64
  %36 = add i64 %.160, %35
  %37 = add nuw nsw i64 %.04659, 1
  %38 = load i8, ptr %0, align 8, !tbaa !34
  %39 = zext i8 %38 to i64
  %40 = icmp samesign ult i64 %37, %39
  br i1 %40, label %28, label %._crit_edge, !llvm.loop !35

._crit_edge:                                      ; preds = %28, %25
  %.1.lcssa = phi i64 [ %.045, %25 ], [ %36, %28 ]
  %41 = getelementptr inbounds nuw i8, ptr %20, i64 %.1.lcssa
  %42 = sub i64 %19, %.1.lcssa
  %43 = getelementptr inbounds nuw i8, ptr %0, i64 48
  %44 = load i32, ptr %43, align 8, !tbaa !7
  %.not54 = icmp eq i32 %44, 0
  %45 = select i1 %.not54, ptr @.str.6, ptr @.str.5
  %46 = tail call i32 (ptr, i64, ptr, ...) @BIO_snprintf(ptr noundef nonnull %41, i64 noundef %42, ptr noundef nonnull @.str.4, ptr noundef nonnull %45) #11
  %47 = tail call ptr @ossl_qlog_new(ptr noundef nonnull %0)
  %48 = icmp eq ptr %47, null
  br i1 %48, label %ossl_qlog_set_sink_filename.exit.thread, label %49

49:                                               ; preds = %._crit_edge
  %50 = tail call ptr @BIO_new_file(ptr noundef nonnull %20, ptr noundef nonnull @.str.8) #11
  %51 = icmp eq ptr %50, null
  br i1 %51, label %ossl_qlog_set_sink_filename.exit.thread, label %52

52:                                               ; preds = %49
  %53 = getelementptr inbounds nuw i8, ptr %47, i64 152
  %54 = tail call i32 @ossl_json_flush(ptr noundef nonnull %53) #11
  %55 = getelementptr inbounds nuw i8, ptr %47, i64 88
  %56 = load ptr, ptr %55, align 8, !tbaa !37
  tail call void @BIO_free_all(ptr noundef %56) #11
  store ptr %50, ptr %55, align 8, !tbaa !37
  %57 = tail call i32 @ossl_json_set0_sink(ptr noundef nonnull %53, ptr noundef nonnull %50) #11
  %58 = icmp eq ptr %3, null
  br i1 %58, label %62, label %59

59:                                               ; preds = %52
  %60 = load i8, ptr %3, align 1, !tbaa !4
  %61 = icmp eq i8 %60, 0
  br i1 %61, label %62, label %63

62:                                               ; preds = %59, %52
  br label %63

63:                                               ; preds = %62, %59
  %.047 = phi ptr [ @.str.7, %62 ], [ %3, %59 ]
  %64 = tail call i32 @ossl_qlog_set_filter(ptr noundef nonnull %47, ptr noundef nonnull %.047)
  %.not56 = icmp eq i32 %64, 0
  br i1 %.not56, label %ossl_qlog_set_sink_filename.exit.thread, label %65

65:                                               ; preds = %63
  tail call void @CRYPTO_free(ptr noundef nonnull %20, ptr noundef nonnull @.str, i32 noundef 151) #11
  br label %66

ossl_qlog_set_sink_filename.exit.thread:          ; preds = %49, %63, %._crit_edge
  tail call void @CRYPTO_free(ptr noundef nonnull %20, ptr noundef nonnull @.str, i32 noundef 155) #11
  tail call void @ossl_qlog_free(ptr noundef %47)
  br label %66

66:                                               ; preds = %ossl_determine_dirsep.exit, %6, %1, %ossl_qlog_set_sink_filename.exit.thread, %65
  %.0 = phi ptr [ null, %ossl_qlog_set_sink_filename.exit.thread ], [ %47, %65 ], [ null, %1 ], [ null, %6 ], [ null, %ossl_determine_dirsep.exit ]
  ret ptr %.0
}